; ModuleID = '43/951.cpp'
source_filename = "43/951.cpp"
target datalayout = "e-m:e-p270:32:32-p271:32:32-p272:64:64-i64:64-f80:128-n8:16:32:64-S128"
target triple = "x86_64-pc-linux-gnu"

%"class.std::ios_base::Init" = type { i8 }
%"class.std::basic_istream" = type { i32 (...)**, i64, %"class.std::basic_ios" }
%"class.std::basic_ios" = type { %"class.std::ios_base", %"class.std::basic_ostream"*, i8, i8, %"class.std::basic_streambuf"*, %"class.std::ctype"*, %"class.std::num_put"*, %"class.std::num_get"* }
%"class.std::ios_base" = type { i32 (...)**, i64, i64, i32, i32, i32, %"struct.std::ios_base::_Callback_list"*, %"struct.std::ios_base::_Words", [8 x %"struct.std::ios_base::_Words"], i32, %"struct.std::ios_base::_Words"*, %"class.std::locale" }
%"struct.std::ios_base::_Callback_list" = type { %"struct.std::ios_base::_Callback_list"*, void (i32, %"class.std::ios_base"*, i32)*, i32, i32 }
%"struct.std::ios_base::_Words" = type { i8*, i64 }
%"class.std::locale" = type { %"class.std::locale::_Impl"* }
%"class.std::locale::_Impl" = type { i32, %"class.std::locale::facet"**, i64, %"class.std::locale::facet"**, i8** }
%"class.std::locale::facet" = type <{ i32 (...)**, i32, [4 x i8] }>
%"class.std::basic_ostream" = type { i32 (...)**, %"class.std::basic_ios" }
%"class.std::basic_streambuf" = type { i32 (...)**, i8*, i8*, i8*, i8*, i8*, i8*, %"class.std::locale" }
%"class.std::ctype" = type <{ %"class.std::locale::facet.base", [4 x i8], %struct.__locale_struct*, i8, [7 x i8], i32*, i32*, i16*, i8, [256 x i8], [256 x i8], i8, [6 x i8] }>
%"class.std::locale::facet.base" = type <{ i32 (...)**, i32 }>
%struct.__locale_struct = type { [13 x %struct.__locale_data*], i16*, i32*, i32*, [13 x i8*] }
%struct.__locale_data = type opaque
%"class.std::num_put" = type { %"class.std::locale::facet.base", [4 x i8] }
%"class.std::num_get" = type { %"class.std::locale::facet.base", [4 x i8] }

@_ZStL8__ioinit = internal global %"class.std::ios_base::Init" zeroinitializer, align 1
@__dso_handle = external hidden global i8
@__const.main.s = private unnamed_addr constant [25 x double] [double 2.000000e+00, double 3.000000e+00, double 5.000000e+00, double 7.000000e+00, double 1.100000e+01, double 1.300000e+01, double 1.700000e+01, double 1.900000e+01, double 2.300000e+01, double 2.900000e+01, double 3.100000e+01, double 3.700000e+01, double 4.100000e+01, double 4.300000e+01, double 4.700000e+01, double 5.300000e+01, double 5.900000e+01, double 6.100000e+01, double 6.700000e+01, double 7.100000e+01, double 7.300000e+01, double 7.900000e+01, double 8.300000e+01, double 8.900000e+01, double 9.700000e+01], align 16
@_ZSt3cin = external dso_local global %"class.std::basic_istream", align 8
@_ZSt4cout = external dso_local global %"class.std::basic_ostream", align 8
@.str = private unnamed_addr constant [2 x i8] c" \00", align 1
@llvm.global_ctors = appending global [1 x { i32, void ()*, i8* }] [{ i32, void ()*, i8* } { i32 65535, void ()* @_GLOBAL__sub_I_951.cpp, i8* null }]

; Function Attrs: noinline uwtable
define internal void @__cxx_global_var_init() #0 section ".text.startup" {
  call void @_ZNSt8ios_base4InitC1Ev(%"class.std::ios_base::Init"* @_ZStL8__ioinit)
  %1 = call i32 @__cxa_atexit(void (i8*)* bitcast (void (%"class.std::ios_base::Init"*)* @_ZNSt8ios_base4InitD1Ev to void (i8*)*), i8* getelementptr inbounds (%"class.std::ios_base::Init", %"class.std::ios_base::Init"* @_ZStL8__ioinit, i32 0, i32 0), i8* @__dso_handle) #3
  ret void
}

declare dso_local void @_ZNSt8ios_base4InitC1Ev(%"class.std::ios_base::Init"*) unnamed_addr #1

; Function Attrs: nounwind
declare dso_local void @_ZNSt8ios_base4InitD1Ev(%"class.std::ios_base::Init"*) unnamed_addr #2

; Function Attrs: nounwind
declare dso_local i32 @__cxa_atexit(void (i8*)*, i8*, i8*) #3

; Function Attrs: noinline norecurse uwtable
define dso_local i32 @main() #4 {
  %1 = alloca i32, align 4
  %2 = alloca i32, align 4
  %3 = alloca i32, align 4
  %4 = alloca i32, align 4
  %5 = alloca i32, align 4
  %6 = alloca i32, align 4
  %7 = alloca i32, align 4
  %8 = alloca i32, align 4
  %9 = alloca [25 x double], align 16
  %10 = alloca double, align 8
  %11 = alloca double, align 8
  store i32 0, i32* %1, align 4
  %12 = bitcast [25 x double]* %9 to i8*
  call void @llvm.memcpy.p0i8.p0i8.i64(i8* align 16 %12, i8* align 16 bitcast ([25 x double]* @__const.main.s to i8*), i64 200, i1 false)
  %13 = call dereferenceable(280) %"class.std::basic_istream"* @_ZNSirsERi(%"class.std::basic_istream"* @_ZSt3cin, i32* dereferenceable(4) %2)
  store double 3.000000e+00, double* %10, align 8
  store double 0.000000e+00, double* %11, align 8
  br label %14

14:                                               ; preds = %103, %0
  %15 = load double, double* %10, align 8
  %16 = load i32, i32* %2, align 4
  %17 = sdiv i32 %16, 2
  %18 = sitofp i32 %17 to double
  %19 = fcmp ole double %15, %18
  br i1 %19, label %20, label %106

20:                                               ; preds = %14
  %21 = load i32, i32* %2, align 4
  %22 = sitofp i32 %21 to double
  %23 = load double, double* %10, align 8
  %24 = fsub double %22, %23
  store double %24, double* %11, align 8
  store i32 0, i32* %3, align 4
  store i32 0, i32* %6, align 4
  store i32 0, i32* %5, align 4
  store i32 0, i32* %4, align 4
  br label %25

25:                                               ; preds = %55, %20
  %26 = load i32, i32* %3, align 4
  %27 = icmp slt i32 %26, 25
  br i1 %27, label %28, label %35

28:                                               ; preds = %25
  %29 = load i32, i32* %3, align 4
  %30 = sext i32 %29 to i64
  %31 = getelementptr inbounds [25 x double], [25 x double]* %9, i64 0, i64 %30
  %32 = load double, double* %31, align 8
  %33 = load double, double* %10, align 8
  %34 = fcmp olt double %32, %33
  br label %35

35:                                               ; preds = %28, %25
  %36 = phi i1 [ false, %25 ], [ %34, %28 ]
  br i1 %36, label %37, label %56

37:                                               ; preds = %35
  %38 = load double, double* %10, align 8
  %39 = load i32, i32* %3, align 4
  %40 = sext i32 %39 to i64
  %41 = getelementptr inbounds [25 x double], [25 x double]* %9, i64 0, i64 %40
  %42 = load double, double* %41, align 8
  %43 = call double @fmod(double %38, double %42) #3
  %44 = fptosi double %43 to i32
  store i32 %44, i32* %7, align 4
  %45 = load i32, i32* %7, align 4
  %46 = icmp ne i32 %45, 0
  br i1 %46, label %47, label %52

47:                                               ; preds = %37
  %48 = load i32, i32* %3, align 4
  %49 = add nsw i32 %48, 1
  store i32 %49, i32* %3, align 4
  %50 = load i32, i32* %6, align 4
  %51 = add nsw i32 %50, 1
  store i32 %51, i32* %6, align 4
  br label %55

52:                                               ; preds = %37
  %53 = load i32, i32* %3, align 4
  %54 = add nsw i32 %53, 26
  store i32 %54, i32* %3, align 4
  br label %55

55:                                               ; preds = %52, %47
  br label %25

56:                                               ; preds = %35
  br label %57

57:                                               ; preds = %87, %56
  %58 = load i32, i32* %4, align 4
  %59 = icmp slt i32 %58, 25
  br i1 %59, label %60, label %67

60:                                               ; preds = %57
  %61 = load i32, i32* %4, align 4
  %62 = sext i32 %61 to i64
  %63 = getelementptr inbounds [25 x double], [25 x double]* %9, i64 0, i64 %62
  %64 = load double, double* %63, align 8
  %65 = load double, double* %11, align 8
  %66 = fcmp olt double %64, %65
  br label %67

67:                                               ; preds = %60, %57
  %68 = phi i1 [ false, %57 ], [ %66, %60 ]
  br i1 %68, label %69, label %88

69:                                               ; preds = %67
  %70 = load double, double* %11, align 8
  %71 = load i32, i32* %4, align 4
  %72 = sext i32 %71 to i64
  %73 = getelementptr inbounds [25 x double], [25 x double]* %9, i64 0, i64 %72
  %74 = load double, double* %73, align 8
  %75 = call double @fmod(double %70, double %74) #3
  %76 = fptosi double %75 to i32
  store i32 %76, i32* %8, align 4
  %77 = load i32, i32* %8, align 4
  %78 = icmp ne i32 %77, 0
  br i1 %78, label %79, label %84

79:                                               ; preds = %69
  %80 = load i32, i32* %4, align 4
  %81 = add nsw i32 %80, 1
  store i32 %81, i32* %4, align 4
  %82 = load i32, i32* %5, align 4
  %83 = add nsw i32 %82, 1
  store i32 %83, i32* %5, align 4
  br label %87

84:                                               ; preds = %69
  %85 = load i32, i32* %4, align 4
  %86 = add nsw i32 %85, 26
  store i32 %86, i32* %4, align 4
  br label %87

87:                                               ; preds = %84, %79
  br label %57

88:                                               ; preds = %67
  %89 = load i32, i32* %5, align 4
  %90 = load i32, i32* %4, align 4
  %91 = icmp eq i32 %89, %90
  br i1 %91, label %92, label %103

92:                                               ; preds = %88
  %93 = load i32, i32* %3, align 4
  %94 = load i32, i32* %6, align 4
  %95 = icmp eq i32 %93, %94
  br i1 %95, label %96, label %103

96:                                               ; preds = %92
  %97 = load double, double* %10, align 8
  %98 = call dereferenceable(272) %"class.std::basic_ostream"* @_ZNSolsEd(%"class.std::basic_ostream"* @_ZSt4cout, double %97)
  %99 = call dereferenceable(272) %"class.std::basic_ostream"* @_ZStlsISt11char_traitsIcEERSt13basic_ostreamIcT_ES5_PKc(%"class.std::basic_ostream"* dereferenceable(272) %98, i8* getelementptr inbounds ([2 x i8], [2 x i8]* @.str, i64 0, i64 0))
  %100 = load double, double* %11, align 8
  %101 = call dereferenceable(272) %"class.std::basic_ostream"* @_ZNSolsEd(%"class.std::basic_ostream"* %99, double %100)
  %102 = call dereferenceable(272) %"class.std::basic_ostream"* @_ZNSolsEPFRSoS_E(%"class.std::basic_ostream"* %101, %"class.std::basic_ostream"* (%"class.std::basic_ostream"*)* @_ZSt4endlIcSt11char_traitsIcEERSt13basic_ostreamIT_T0_ES6_)
  br label %103

103:                                              ; preds = %96, %92, %88
  %104 = load double, double* %10, align 8
  %105 = fadd double %104, 2.000000e+00
  store double %105, double* %10, align 8
  br label %14

106:                                              ; preds = %14
  ret i32 0
}

; Function Attrs: argmemonly nounwind willreturn
declare void @llvm.memcpy.p0i8.p0i8.i64(i8* noalias nocapture writeonly, i8* noalias nocapture readonly, i64, i1 immarg) #5

declare dso_local dereferenceable(280) %"class.std::basic_istream"* @_ZNSirsERi(%"class.std::basic_istream"*, i32* dereferenceable(4)) #1

; Function Attrs: nounwind
declare dso_local double @fmod(double, double) #2

declare dso_local dereferenceable(272) %"class.std::basic_ostream"* @_ZStlsISt11char_traitsIcEERSt13basic_ostreamIcT_ES5_PKc(%"class.std::basic_ostream"* dereferenceable(272), i8*) #1

declare dso_local dereferenceable(272) %"class.std::basic_ostream"* @_ZNSolsEd(%"class.std::basic_ostream"*, double) #1

declare dso_local dereferenceable(272) %"class.std::basic_ostream"* @_ZNSolsEPFRSoS_E(%"class.std::basic_ostream"*, %"class.std::basic_ostream"* (%"class.std::basic_ostream"*)*) #1

declare dso_local dereferenceable(272) %"class.std::basic_ostream"* @_ZSt4endlIcSt11char_traitsIcEERSt13basic_ostreamIT_T0_ES6_(%"class.std::basic_ostream"* dereferenceable(272)) #1

; Function Attrs: noinline uwtable
define internal void @_GLOBAL__sub_I_951.cpp() #0 section ".text.startup" {
  call void @__cxx_global_var_init()
  ret void
}


!llvm.module.flags = !{!0}
!llvm.ident = !{!1}

!0 = !{i32 1, !"wchar_size", i32 4}
!1 = !{!"clang version 10.0.0-4ubuntu1 "}
